target datalayout = "e-m:e-p270:32:32-p271:32:32-p272:64:64-i64:64-i128:128-f80:128-n8:16:32:64-S128"
target triple = "x86_64-pc-linux-gnu"

; Function Attrs: nounwind uwtable
define dso_local i64 @quote_c_style(ptr noundef %0, ptr noundef %1, ptr noundef %2, i32 noundef %3) #0 {
  %5 = alloca ptr, align 8
  %6 = alloca ptr, align 8
  %7 = alloca ptr, align 8
  %8 = alloca i32, align 4
  store ptr %0, ptr %5, align 8, !tbaa !9
  store ptr %1, ptr %6, align 8, !tbaa !4
  store ptr %2, ptr %7, align 8, !tbaa !35
  store i32 %3, ptr %8, align 4, !tbaa !19
  %9 = load ptr, ptr %5, align 8, !tbaa !9
  %10 = load ptr, ptr %6, align 8, !tbaa !4
  %11 = load ptr, ptr %7, align 8, !tbaa !35
  %12 = load i32, ptr %8, align 4, !tbaa !19
  %13 = call i64 @quote_c_style_counted(ptr noundef %9, i64 noundef -1, ptr noundef %10, ptr noundef %11, i32 noundef %12)
  ret i64 %13
}

; Function Attrs: nounwind uwtable
define dso_local void @write_name_quoted(ptr noundef %0, ptr noundef %1, i32 noundef %2) #0 {
  %4 = alloca ptr, align 8
  %5 = alloca ptr, align 8
  %6 = alloca i32, align 4
  store ptr %0, ptr %4, align 8, !tbaa !9
  store ptr %1, ptr %5, align 8, !tbaa !35
  store i32 %2, ptr %6, align 4, !tbaa !19
  %7 = load i32, ptr %6, align 4, !tbaa !19
  %8 = icmp ne i32 %7, 0
  br i1 %8, label %9, label %13

9:                                                ; preds = %3
  %10 = load ptr, ptr %4, align 8, !tbaa !9
  %11 = load ptr, ptr %5, align 8, !tbaa !35
  %12 = call i64 @quote_c_style(ptr noundef %10, ptr noundef null, ptr noundef %11, i32 noundef 0)
  br label %17

13:                                               ; preds = %3
  %14 = load ptr, ptr %4, align 8, !tbaa !9
  %15 = load ptr, ptr %5, align 8, !tbaa !35
  %16 = call i32 @fputs(ptr noundef %14, ptr noundef %15)
  br label %17

17:                                               ; preds = %13, %9
  %18 = load i32, ptr %6, align 4, !tbaa !19
  %19 = load ptr, ptr %5, align 8, !tbaa !35
  %20 = call i32 @fputc(i32 noundef %18, ptr noundef %19)
  ret void
}