; Function Attrs: nounwind uwtable
define dso_local void @write_name_quoted(ptr noundef %0, ptr noundef %1, i32 noundef %2) local_unnamed_addr #0 {
  %.not = icmp eq i32 %2, 0
  br i1 %.not, label %6, label %4

4:                                                ; preds = %3
  %5 = tail call fastcc i64 @quote_c_style_counted(ptr noundef %0, i64 noundef -1, ptr noundef null, ptr noundef %1, i32 noundef 0)
  br label %8

6:                                                ; preds = %3
  %7 = tail call i32 @fputs(ptr noundef %0, ptr noundef %1)
  br label %8

8:                                                ; preds = %6, %4
  %9 = tail call i32 @fputc(i32 noundef %2, ptr noundef %1)
  ret void
}